target datalayout = "e-m:e-p270:32:32-p271:32:32-p272:64:64-i64:64-i128:128-f80:128-n8:16:32:64-S128"
target triple = "x86_64-pc-linux-gnu"

%struct.md5_state_s = type { [2 x i32], [4 x i32], [64 x i8] }
%"struct.std::array" = type { [16 x i8] }

@_ZZ14gmx_md5_finishP11md5_state_sE3pad = internal constant <{ i8, [63 x i8] }> <{ i8 -128, [63 x i8] zeroinitializer }>, align 16

; Function Attrs: mustprogress nounwind uwtable
define linkonce_odr noundef nonnull align 1 dereferenceable(1) ptr @_ZNSt14__array_traitsIhLm16EE6_S_refERA16_Khm(ptr noundef nonnull align 1 dereferenceable(16) %0, i64 noundef %1) #0 comdat align 2 {
  %3 = alloca ptr, align 8
  %4 = alloca i64, align 8
  store ptr %0, ptr %3, align 8, !tbaa !11
  store i64 %1, ptr %4, align 8, !tbaa !19
  %5 = load ptr, ptr %3, align 8, !tbaa !11
  %6 = load i64, ptr %4, align 8, !tbaa !19
  %7 = getelementptr inbounds nuw [16 x i8], ptr %5, i64 0, i64 %6
  ret ptr %7
}

; Function Attrs: mustprogress nounwind uwtable
define linkonce_odr noundef nonnull align 1 dereferenceable(1) ptr @_ZNSt5arrayIhLm16EEixEm(ptr noundef nonnull align 1 dereferenceable(16) %0, i64 noundef %1) #0 comdat align 2 {
  %3 = alloca ptr, align 8
  %4 = alloca i64, align 8
  store ptr %0, ptr %3, align 8, !tbaa !22
  store i64 %1, ptr %4, align 8, !tbaa !19
  %5 = load ptr, ptr %3, align 8
  %6 = getelementptr inbounds nuw %"struct.std::array", ptr %5, i32 0, i32 0
  %7 = load i64, ptr %4, align 8, !tbaa !19
  %8 = call noundef nonnull align 1 dereferenceable(1) ptr @_ZNSt14__array_traitsIhLm16EE6_S_refERA16_Khm(ptr noundef nonnull align 1 dereferenceable(16) %6, i64 noundef %7) #5
  ret ptr %8
}

; Function Attrs: mustprogress nounwind willreturn memory(none) uwtable
define linkonce_odr noundef i64 @_ZNKSt5arrayIhLm16EE4sizeEv(ptr noundef nonnull align 1 dereferenceable(16) %0) #4 comdat align 2 {
  %2 = alloca ptr, align 8
  store ptr %0, ptr %2, align 8, !tbaa !22
  ret i64 16
}

; Function Attrs: mustprogress uwtable
define void @_Z14gmx_md5_appendP11md5_state_sPKhi(ptr noundef %0, ptr noundef %1, i32 noundef %2) #1 {
  %4 = alloca ptr, align 8
  %5 = alloca ptr, align 8
  %6 = alloca i32, align 4
  %7 = alloca ptr, align 8
  %8 = alloca i32, align 4
  %9 = alloca i32, align 4
  %10 = alloca i32, align 4
  %11 = alloca i32, align 4
  %12 = alloca i32, align 4
  store ptr %0, ptr %4, align 8, !tbaa !4
  store ptr %1, ptr %5, align 8, !tbaa !11
  store i32 %2, ptr %6, align 4, !tbaa !9
  call void @llvm.lifetime.start.p0(i64 8, ptr %7) #5
  %13 = load ptr, ptr %5, align 8, !tbaa !11
  store ptr %13, ptr %7, align 8, !tbaa !11
  call void @llvm.lifetime.start.p0(i64 4, ptr %8) #5
  %14 = load i32, ptr %6, align 4, !tbaa !9
  store i32 %14, ptr %8, align 4, !tbaa !9
  call void @llvm.lifetime.start.p0(i64 4, ptr %9) #5
  %15 = load ptr, ptr %4, align 8, !tbaa !4
  %16 = getelementptr inbounds nuw %struct.md5_state_s, ptr %15, i32 0, i32 0
  %17 = getelementptr inbounds [2 x i32], ptr %16, i64 0, i64 0
  %18 = load i32, ptr %17, align 4, !tbaa !9
  %19 = lshr i32 %18, 3
  %20 = and i32 %19, 63
  store i32 %20, ptr %9, align 4, !tbaa !9
  call void @llvm.lifetime.start.p0(i64 4, ptr %10) #5
  %21 = load i32, ptr %6, align 4, !tbaa !9
  %22 = shl i32 %21, 3
  store i32 %22, ptr %10, align 4, !tbaa !9
  %23 = load i32, ptr %6, align 4, !tbaa !9
  %24 = icmp sle i32 %23, 0
  br i1 %24, label %25, label %26

25:                                               ; preds = %3
  store i32 1, ptr %11, align 4
  br label %119

26:                                               ; preds = %3
  %27 = load i32, ptr %6, align 4, !tbaa !9
  %28 = ashr i32 %27, 29
  %29 = load ptr, ptr %4, align 8, !tbaa !4
  %30 = getelementptr inbounds nuw %struct.md5_state_s, ptr %29, i32 0, i32 0
  %31 = getelementptr inbounds [2 x i32], ptr %30, i64 0, i64 1
  %32 = load i32, ptr %31, align 4, !tbaa !9
  %33 = add i32 %32, %28
  store i32 %33, ptr %31, align 4, !tbaa !9
  %34 = load i32, ptr %10, align 4, !tbaa !9
  %35 = load ptr, ptr %4, align 8, !tbaa !4
  %36 = getelementptr inbounds nuw %struct.md5_state_s, ptr %35, i32 0, i32 0
  %37 = getelementptr inbounds [2 x i32], ptr %36, i64 0, i64 0
  %38 = load i32, ptr %37, align 4, !tbaa !9
  %39 = add i32 %38, %34
  store i32 %39, ptr %37, align 4, !tbaa !9
  %40 = load ptr, ptr %4, align 8, !tbaa !4
  %41 = getelementptr inbounds nuw %struct.md5_state_s, ptr %40, i32 0, i32 0
  %42 = getelementptr inbounds [2 x i32], ptr %41, i64 0, i64 0
  %43 = load i32, ptr %42, align 4, !tbaa !9
  %44 = load i32, ptr %10, align 4, !tbaa !9
  %45 = icmp ult i32 %43, %44
  br i1 %45, label %46, label %52

46:                                               ; preds = %26
  %47 = load ptr, ptr %4, align 8, !tbaa !4
  %48 = getelementptr inbounds nuw %struct.md5_state_s, ptr %47, i32 0, i32 0
  %49 = getelementptr inbounds [2 x i32], ptr %48, i64 0, i64 1
  %50 = load i32, ptr %49, align 4, !tbaa !9
  %51 = add i32 %50, 1
  store i32 %51, ptr %49, align 4, !tbaa !9
  br label %52

52:                                               ; preds = %46, %26
  %53 = load i32, ptr %9, align 4, !tbaa !9
  %54 = icmp ne i32 %53, 0
  br i1 %54, label %55, label %96

55:                                               ; preds = %52
  call void @llvm.lifetime.start.p0(i64 4, ptr %12) #5
  %56 = load i32, ptr %9, align 4, !tbaa !9
  %57 = load i32, ptr %6, align 4, !tbaa !9
  %58 = add nsw i32 %56, %57
  %59 = icmp sgt i32 %58, 64
  br i1 %59, label %60, label %63

60:                                               ; preds = %55
  %61 = load i32, ptr %9, align 4, !tbaa !9
  %62 = sub nsw i32 64, %61
  br label %65

63:                                               ; preds = %55
  %64 = load i32, ptr %6, align 4, !tbaa !9
  br label %65

65:                                               ; preds = %63, %60
  %66 = phi i32 [ %62, %60 ], [ %64, %63 ]
  store i32 %66, ptr %12, align 4, !tbaa !9
  %67 = load ptr, ptr %4, align 8, !tbaa !4
  %68 = getelementptr inbounds nuw %struct.md5_state_s, ptr %67, i32 0, i32 2
  %69 = getelementptr inbounds [64 x i8], ptr %68, i64 0, i64 0
  %70 = load i32, ptr %9, align 4, !tbaa !9
  %71 = sext i32 %70 to i64
  %72 = getelementptr inbounds i8, ptr %69, i64 %71
  %73 = load ptr, ptr %7, align 8, !tbaa !11
  %74 = load i32, ptr %12, align 4, !tbaa !9
  %75 = sext i32 %74 to i64
  call void @llvm.memcpy.p0.p0.i64(ptr align 1 %72, ptr align 1 %73, i64 %75, i1 false)
  %76 = load i32, ptr %9, align 4, !tbaa !9
  %77 = load i32, ptr %12, align 4, !tbaa !9
  %78 = add nsw i32 %76, %77
  %79 = icmp slt i32 %78, 64
  br i1 %79, label %80, label %81

80:                                               ; preds = %65
  store i32 1, ptr %11, align 4
  br label %93

81:                                               ; preds = %65
  %82 = load i32, ptr %12, align 4, !tbaa !9
  %83 = load ptr, ptr %7, align 8, !tbaa !11
  %84 = sext i32 %82 to i64
  %85 = getelementptr inbounds i8, ptr %83, i64 %84
  store ptr %85, ptr %7, align 8, !tbaa !11
  %86 = load i32, ptr %12, align 4, !tbaa !9
  %87 = load i32, ptr %8, align 4, !tbaa !9
  %88 = sub nsw i32 %87, %86
  store i32 %88, ptr %8, align 4, !tbaa !9
  %89 = load ptr, ptr %4, align 8, !tbaa !4
  %90 = load ptr, ptr %4, align 8, !tbaa !4
  %91 = getelementptr inbounds nuw %struct.md5_state_s, ptr %90, i32 0, i32 2
  %92 = getelementptr inbounds [64 x i8], ptr %91, i64 0, i64 0
  call void @_ZL11md5_processP11md5_state_sPKh(ptr noundef %89, ptr noundef %92)
  store i32 0, ptr %11, align 4
  br label %93

93:                                               ; preds = %81, %80
  call void @llvm.lifetime.end.p0(i64 4, ptr %12) #5
  %94 = load i32, ptr %11, align 4
  switch i32 %94, label %119 [
    i32 0, label %95
  ]

95:                                               ; preds = %93
  br label %96

96:                                               ; preds = %95, %52
  br label %97

97:                                               ; preds = %103, %96
  %98 = load i32, ptr %8, align 4, !tbaa !9
  %99 = icmp sge i32 %98, 64
  br i1 %99, label %100, label %108

100:                                              ; preds = %97
  %101 = load ptr, ptr %4, align 8, !tbaa !4
  %102 = load ptr, ptr %7, align 8, !tbaa !11
  call void @_ZL11md5_processP11md5_state_sPKh(ptr noundef %101, ptr noundef %102)
  br label %103

103:                                              ; preds = %100
  %104 = load ptr, ptr %7, align 8, !tbaa !11
  %105 = getelementptr inbounds i8, ptr %104, i64 64
  store ptr %105, ptr %7, align 8, !tbaa !11
  %106 = load i32, ptr %8, align 4, !tbaa !9
  %107 = sub nsw i32 %106, 64
  store i32 %107, ptr %8, align 4, !tbaa !9
  br label %97, !llvm.loop !13

108:                                              ; preds = %97
  %109 = load i32, ptr %8, align 4, !tbaa !9
  %110 = icmp ne i32 %109, 0
  br i1 %110, label %111, label %118

111:                                              ; preds = %108
  %112 = load ptr, ptr %4, align 8, !tbaa !4
  %113 = getelementptr inbounds nuw %struct.md5_state_s, ptr %112, i32 0, i32 2
  %114 = getelementptr inbounds [64 x i8], ptr %113, i64 0, i64 0
  %115 = load ptr, ptr %7, align 8, !tbaa !11
  %116 = load i32, ptr %8, align 4, !tbaa !9
  %117 = sext i32 %116 to i64
  call void @llvm.memcpy.p0.p0.i64(ptr align 4 %114, ptr align 1 %115, i64 %117, i1 false)
  br label %118

118:                                              ; preds = %111, %108
  store i32 0, ptr %11, align 4
  br label %119

119:                                              ; preds = %118, %93, %25
  call void @llvm.lifetime.end.p0(i64 4, ptr %10) #5
  call void @llvm.lifetime.end.p0(i64 4, ptr %9) #5
  call void @llvm.lifetime.end.p0(i64 4, ptr %8) #5
  call void @llvm.lifetime.end.p0(i64 8, ptr %7) #5
  %120 = load i32, ptr %11, align 4
  switch i32 %120, label %122 [
    i32 0, label %121
    i32 1, label %121
  ]

121:                                              ; preds = %119, %119
  ret void

122:                                              ; preds = %119
  unreachable
}

; Function Attrs: mustprogress uwtable
define { i64, i64 } @_Z14gmx_md5_finishP11md5_state_s(ptr noundef %0) #1 {
  %2 = alloca %"struct.std::array", align 1
  %3 = alloca ptr, align 8
  %4 = alloca [8 x i8], align 1
  %5 = alloca i32, align 4
  %6 = alloca i64, align 8
  store ptr %0, ptr %3, align 8, !tbaa !4
  call void @llvm.lifetime.start.p0(i64 8, ptr %4) #5
  call void @llvm.lifetime.start.p0(i64 4, ptr %5) #5
  store i32 0, ptr %5, align 4, !tbaa !9
  br label %7

7:                                                ; preds = %26, %1
  %8 = load i32, ptr %5, align 4, !tbaa !9
  %9 = icmp slt i32 %8, 8
  br i1 %9, label %10, label %29

10:                                               ; preds = %7
  %11 = load ptr, ptr %3, align 8, !tbaa !4
  %12 = getelementptr inbounds nuw %struct.md5_state_s, ptr %11, i32 0, i32 0
  %13 = load i32, ptr %5, align 4, !tbaa !9
  %14 = ashr i32 %13, 2
  %15 = sext i32 %14 to i64
  %16 = getelementptr inbounds [2 x i32], ptr %12, i64 0, i64 %15
  %17 = load i32, ptr %16, align 4, !tbaa !9
  %18 = load i32, ptr %5, align 4, !tbaa !9
  %19 = and i32 %18, 3
  %20 = shl i32 %19, 3
  %21 = lshr i32 %17, %20
  %22 = trunc i32 %21 to i8
  %23 = load i32, ptr %5, align 4, !tbaa !9
  %24 = sext i32 %23 to i64
  %25 = getelementptr inbounds [8 x i8], ptr %4, i64 0, i64 %24
  store i8 %22, ptr %25, align 1, !tbaa !17
  br label %26

26:                                               ; preds = %10
  %27 = load i32, ptr %5, align 4, !tbaa !9
  %28 = add nsw i32 %27, 1
  store i32 %28, ptr %5, align 4, !tbaa !9
  br label %7, !llvm.loop !18

29:                                               ; preds = %7
  %30 = load ptr, ptr %3, align 8, !tbaa !4
  %31 = load ptr, ptr %3, align 8, !tbaa !4
  %32 = getelementptr inbounds nuw %struct.md5_state_s, ptr %31, i32 0, i32 0
  %33 = getelementptr inbounds [2 x i32], ptr %32, i64 0, i64 0
  %34 = load i32, ptr %33, align 4, !tbaa !9
  %35 = lshr i32 %34, 3
  %36 = sub i32 55, %35
  %37 = and i32 %36, 63
  %38 = add i32 %37, 1
  call void @_Z14gmx_md5_appendP11md5_state_sPKhi(ptr noundef %30, ptr noundef @_ZZ14gmx_md5_finishP11md5_state_sE3pad, i32 noundef %38)
  %39 = load ptr, ptr %3, align 8, !tbaa !4
  %40 = getelementptr inbounds [8 x i8], ptr %4, i64 0, i64 0
  call void @_Z14gmx_md5_appendP11md5_state_sPKhi(ptr noundef %39, ptr noundef %40, i32 noundef 8)
  call void @llvm.lifetime.start.p0(i64 8, ptr %6) #5
  store i64 0, ptr %6, align 8, !tbaa !19
  br label %41

41:                                               ; preds = %61, %29
  %42 = load i64, ptr %6, align 8, !tbaa !19
  %43 = call noundef i64 @_ZNKSt5arrayIhLm16EE4sizeEv(ptr noundef nonnull align 1 dereferenceable(16) %2) #6
  %44 = icmp ult i64 %42, %43
  br i1 %44, label %46, label %45

45:                                               ; preds = %41
  call void @llvm.lifetime.end.p0(i64 8, ptr %6) #5
  br label %64

46:                                               ; preds = %41
  %47 = load ptr, ptr %3, align 8, !tbaa !4
  %48 = getelementptr inbounds nuw %struct.md5_state_s, ptr %47, i32 0, i32 1
  %49 = load i64, ptr %6, align 8, !tbaa !19
  %50 = lshr i64 %49, 2
  %51 = getelementptr inbounds nuw [4 x i32], ptr %48, i64 0, i64 %50
  %52 = load i32, ptr %51, align 4, !tbaa !9
  %53 = load i64, ptr %6, align 8, !tbaa !19
  %54 = and i64 %53, 3
  %55 = shl i64 %54, 3
  %56 = trunc i64 %55 to i32
  %57 = lshr i32 %52, %56
  %58 = trunc i32 %57 to i8
  %59 = load i64, ptr %6, align 8, !tbaa !19
  %60 = call noundef nonnull align 1 dereferenceable(1) ptr @_ZNSt5arrayIhLm16EEixEm(ptr noundef nonnull align 1 dereferenceable(16) %2, i64 noundef %59) #5
  store i8 %58, ptr %60, align 1, !tbaa !17
  br label %61

61:                                               ; preds = %46
  %62 = load i64, ptr %6, align 8, !tbaa !19
  %63 = add i64 %62, 1
  store i64 %63, ptr %6, align 8, !tbaa !19
  br label %41, !llvm.loop !21

64:                                               ; preds = %45
  call void @llvm.lifetime.end.p0(i64 4, ptr %5) #5
  call void @llvm.lifetime.end.p0(i64 8, ptr %4) #5
  %65 = getelementptr inbounds nuw %"struct.std::array", ptr %2, i32 0, i32 0
  %66 = load { i64, i64 }, ptr %65, align 1
  ret { i64, i64 } %66
}