; Function Attrs: mustprogress nofree norecurse nosync nounwind memory(read, argmem: readwrite, inaccessiblemem: none) uwtable
define { i64, i64 } @_Z14gmx_md5_finishP11md5_state_s(ptr noundef %0) local_unnamed_addr #1 {
  %2 = alloca %"struct.std::array", align 8
  %3 = alloca [8 x i8], align 1
  call void @llvm.lifetime.start.p0(i64 8, ptr nonnull %3) #6
  br label %4

4:                                                ; preds = %1, %4
  %indvars.iv = phi i64 [ 0, %1 ], [ %indvars.iv.next, %4 ]
  %5 = lshr i64 %indvars.iv, 2
  %6 = and i64 %5, 1073741823
  %7 = getelementptr inbounds nuw [2 x i32], ptr %0, i64 0, i64 %6
  %8 = load i32, ptr %7, align 4, !tbaa !4
  %indvars.iv.tr = trunc i64 %indvars.iv to i32
  %9 = shl i32 %indvars.iv.tr, 3
  %10 = and i32 %9, 24
  %11 = lshr i32 %8, %10
  %12 = trunc i32 %11 to i8
  %13 = getelementptr inbounds nuw [8 x i8], ptr %3, i64 0, i64 %indvars.iv
  store i8 %12, ptr %13, align 1, !tbaa !10
  %indvars.iv.next = add nuw nsw i64 %indvars.iv, 1
  %exitcond.not = icmp eq i64 %indvars.iv.next, 8
  br i1 %exitcond.not, label %14, label %4, !llvm.loop !11

14:                                               ; preds = %4
  %15 = load i32, ptr %0, align 4, !tbaa !4
  %16 = lshr i32 %15, 3
  %17 = sub nsw i32 55, %16
  %18 = and i32 %17, 63
  %19 = add nuw nsw i32 %18, 1
  %20 = and i32 %16, 63
  %21 = shl nuw nsw i32 %19, 3
  %22 = getelementptr inbounds nuw i8, ptr %0, i64 4
  %23 = load i32, ptr %22, align 4, !tbaa !4
  %24 = add i32 %21, %15
  store i32 %24, ptr %0, align 4, !tbaa !4
  %25 = icmp ult i32 %24, %21
  br i1 %25, label %26, label %28

26:                                               ; preds = %14
  %27 = add i32 %23, 1
  store i32 %27, ptr %22, align 4, !tbaa !4
  br label %28

28:                                               ; preds = %26, %14
  %.not.i = icmp eq i32 %20, 0
  br i1 %.not.i, label %._crit_edge.i.thread, label %29

29:                                               ; preds = %28
  %30 = add nuw nsw i32 %19, %20
  %31 = icmp samesign ugt i32 %30, 64
  %32 = sub nuw nsw i32 64, %20
  %33 = select i1 %31, i32 %32, i32 %19
  %34 = getelementptr inbounds nuw i8, ptr %0, i64 24
  %35 = zext nneg i32 %20 to i64
  %36 = getelementptr inbounds nuw i8, ptr %34, i64 %35
  %37 = zext nneg i32 %33 to i64
  tail call void @llvm.memcpy.p0.p0.i64(ptr noundef nonnull align 1 dereferenceable(1) %36, ptr noundef nonnull align 16 dereferenceable(1) @_ZZ14gmx_md5_finishP11md5_state_sE3pad, i64 %37, i1 false)
  %38 = add nuw nsw i32 %33, %20
  %39 = icmp samesign ugt i32 %38, 63
  br i1 %39, label %.thread, label %_Z14gmx_md5_appendP11md5_state_sPKhi.exit

.thread:                                          ; preds = %29
  %40 = getelementptr inbounds nuw i8, ptr @_ZZ14gmx_md5_finishP11md5_state_sE3pad, i64 %37
  %41 = sub nsw i32 %19, %33
  tail call fastcc void @_ZL11md5_processP11md5_state_sPKh(ptr noundef nonnull %0, ptr noundef nonnull %34)
  %.not44.i = icmp eq i32 %41, 0
  br i1 %.not44.i, label %_Z14gmx_md5_appendP11md5_state_sPKhi.exit, label %._crit_edge.i.thread

._crit_edge.i.thread:                             ; preds = %28, %.thread
  %.2.lcssa.i33 = phi ptr [ %40, %.thread ], [ @_ZZ14gmx_md5_finishP11md5_state_sE3pad, %28 ]
  %.241.lcssa.i32 = phi i32 [ %41, %.thread ], [ %19, %28 ]
  %42 = getelementptr inbounds nuw i8, ptr %0, i64 24
  %43 = sext i32 %.241.lcssa.i32 to i64
  tail call void @llvm.memcpy.p0.p0.i64(ptr noundef nonnull align 4 dereferenceable(1) %42, ptr noundef nonnull align 1 dereferenceable(1) %.2.lcssa.i33, i64 %43, i1 false)
  br label %_Z14gmx_md5_appendP11md5_state_sPKhi.exit

_Z14gmx_md5_appendP11md5_state_sPKhi.exit:        ; preds = %29, %.thread, %._crit_edge.i.thread
  %44 = load i32, ptr %0, align 4, !tbaa !4
  %45 = lshr i32 %44, 3
  %46 = and i32 %45, 63
  %47 = load i32, ptr %22, align 4, !tbaa !4
  %48 = add i32 %44, 64
  store i32 %48, ptr %0, align 4, !tbaa !4
  %49 = icmp ugt i32 %44, -65
  br i1 %49, label %50, label %52

50:                                               ; preds = %_Z14gmx_md5_appendP11md5_state_sPKhi.exit
  %51 = add i32 %47, 1
  store i32 %51, ptr %22, align 4, !tbaa !4
  br label %52

52:                                               ; preds = %50, %_Z14gmx_md5_appendP11md5_state_sPKhi.exit
  %.not.i15 = icmp eq i32 %46, 0
  br i1 %.not.i15, label %._crit_edge.i19.thread, label %53

53:                                               ; preds = %52
  %54 = icmp samesign ugt i32 %46, 56
  %55 = sub nuw nsw i32 64, %46
  %56 = select i1 %54, i32 %55, i32 8
  %57 = getelementptr inbounds nuw i8, ptr %0, i64 24
  %58 = zext nneg i32 %46 to i64
  %59 = getelementptr inbounds nuw i8, ptr %57, i64 %58
  %60 = zext nneg i32 %56 to i64
  call void @llvm.memcpy.p0.p0.i64(ptr noundef nonnull align 1 dereferenceable(1) %59, ptr noundef nonnull align 1 dereferenceable(1) %3, i64 %60, i1 false)
  %61 = add nuw nsw i32 %56, %46
  %62 = icmp samesign ugt i32 %61, 63
  br i1 %62, label %._crit_edge.i19, label %_Z14gmx_md5_appendP11md5_state_sPKhi.exit26

._crit_edge.i19:                                  ; preds = %53
  %63 = getelementptr inbounds nuw i8, ptr %3, i64 %60
  %64 = sub nsw i32 8, %56
  tail call fastcc void @_ZL11md5_processP11md5_state_sPKh(ptr noundef nonnull %0, ptr noundef nonnull %57)
  %.not44.i22 = icmp eq i32 %56, 8
  br i1 %.not44.i22, label %_Z14gmx_md5_appendP11md5_state_sPKhi.exit26, label %._crit_edge.i19.thread

._crit_edge.i19.thread:                           ; preds = %52, %._crit_edge.i19
  %.2.lcssa.i2138 = phi ptr [ %63, %._crit_edge.i19 ], [ %3, %52 ]
  %.241.lcssa.i2037 = phi i32 [ %64, %._crit_edge.i19 ], [ 8, %52 ]
  %65 = getelementptr inbounds nuw i8, ptr %0, i64 24
  %66 = sext i32 %.241.lcssa.i2037 to i64
  call void @llvm.memcpy.p0.p0.i64(ptr nonnull align 4 %65, ptr nonnull align 1 %.2.lcssa.i2138, i64 %66, i1 false)
  br label %_Z14gmx_md5_appendP11md5_state_sPKhi.exit26

_Z14gmx_md5_appendP11md5_state_sPKhi.exit26:      ; preds = %53, %._crit_edge.i19, %._crit_edge.i19.thread
  %67 = getelementptr inbounds nuw i8, ptr %0, i64 8
  br label %69

68:                                               ; preds = %69
  call void @llvm.lifetime.end.p0(i64 8, ptr nonnull %3) #6
  %.fca.0.load = load i64, ptr %2, align 8
  %.fca.0.insert = insertvalue { i64, i64 } poison, i64 %.fca.0.load, 0
  %.fca.1.gep = getelementptr inbounds nuw i8, ptr %2, i64 8
  %.fca.1.load = load i64, ptr %.fca.1.gep, align 8
  %.fca.1.insert = insertvalue { i64, i64 } %.fca.0.insert, i64 %.fca.1.load, 1
  ret { i64, i64 } %.fca.1.insert

69:                                               ; preds = %_Z14gmx_md5_appendP11md5_state_sPKhi.exit26, %69
  %.040 = phi i64 [ 0, %_Z14gmx_md5_appendP11md5_state_sPKhi.exit26 ], [ %78, %69 ]
  %70 = lshr i64 %.040, 2
  %71 = getelementptr inbounds nuw [4 x i32], ptr %67, i64 0, i64 %70
  %72 = load i32, ptr %71, align 4, !tbaa !4
  %.0.tr = trunc nuw i64 %.040 to i32
  %73 = shl nuw nsw i32 %.0.tr, 3
  %74 = and i32 %73, 24
  %75 = lshr i32 %72, %74
  %76 = trunc i32 %75 to i8
  %77 = getelementptr inbounds nuw [16 x i8], ptr %2, i64 0, i64 %.040
  store i8 %76, ptr %77, align 1, !tbaa !10
  %78 = add nuw nsw i64 %.040, 1
  %exitcond42.not = icmp eq i64 %78, 16
  br i1 %exitcond42.not, label %68, label %69, !llvm.loop !12
}